; Function Attrs: mustprogress nofree norecurse nosync nounwind sspstrong willreturn memory(read, inaccessiblemem: none) uwtable
define dso_local zeroext i1 @virtio_queue_enabled_legacy(ptr noundef readonly captures(none) %vdev, i32 noundef %n) local_unnamed_addr #2 {
entry:
  %vq.i = getelementptr inbounds nuw i8, ptr %vdev, i64 232
  %0 = load ptr, ptr %vq.i, align 8
  %idxprom.i = sext i32 %n to i64
  %desc.i = getelementptr %struct.VirtQueue, ptr %0, i64 %idxprom.i, i32 0, i32 3
  %1 = load i64, ptr %desc.i, align 8
  %cmp = icmp ne i64 %1, 0
  ret i1 %cmp
}